target datalayout = "e-m:e-p270:32:32-p271:32:32-p272:64:64-i64:64-i128:128-f80:128-n8:16:32:64-S128"
target triple = "x86_64-pc-linux-gnu"

%"class.std::__cxx11::basic_string" = type { %"struct.std::__cxx11::basic_string<char>::_Alloc_hider", i64, %union.anon }
%"struct.std::__cxx11::basic_string<char>::_Alloc_hider" = type { ptr }
%union.anon = type { i64, [8 x i8] }
%class.cmJSONState = type { %"class.std::vector", %"class.std::vector.0", %"class.std::__cxx11::basic_string" }
%"class.std::vector" = type { %"struct.std::_Vector_base" }
%"struct.std::_Vector_base" = type { %"struct.std::_Vector_base<std::pair<const std::__cxx11::basic_string<char>, const Json::Value *>, std::allocator<std::pair<const std::__cxx11::basic_string<char>, const Json::Value *>>>::_Vector_impl" }
%"struct.std::_Vector_base<std::pair<const std::__cxx11::basic_string<char>, const Json::Value *>, std::allocator<std::pair<const std::__cxx11::basic_string<char>, const Json::Value *>>>::_Vector_impl" = type { %"struct.std::_Vector_base<std::pair<const std::__cxx11::basic_string<char>, const Json::Value *>, std::allocator<std::pair<const std::__cxx11::basic_string<char>, const Json::Value *>>>::_Vector_impl_data" }
%"struct.std::_Vector_base<std::pair<const std::__cxx11::basic_string<char>, const Json::Value *>, std::allocator<std::pair<const std::__cxx11::basic_string<char>, const Json::Value *>>>::_Vector_impl_data" = type { ptr, ptr, ptr }
%"class.std::vector.0" = type { %"struct.std::_Vector_base.1" }
%"struct.std::_Vector_base.1" = type { %"struct.std::_Vector_base<cmJSONState::Error, std::allocator<cmJSONState::Error>>::_Vector_impl" }
%"struct.std::_Vector_base<cmJSONState::Error, std::allocator<cmJSONState::Error>>::_Vector_impl" = type { %"struct.std::_Vector_base<cmJSONState::Error, std::allocator<cmJSONState::Error>>::_Vector_impl_data" }
%"struct.std::_Vector_base<cmJSONState::Error, std::allocator<cmJSONState::Error>>::_Vector_impl_data" = type { ptr, ptr, ptr }
%"struct.std::pair" = type { %"class.std::__cxx11::basic_string", ptr }
%"class.__gnu_cxx::__normal_iterator.11" = type { ptr }

; Function Attrs: mustprogress uwtable
define linkonce_odr dso_local void @_ZNSt4pairIKNSt7__cxx1112basic_stringIcSt11char_traitsIcESaIcEEEPKN4Json5ValueEEC2IRS6_RSA_TnNSt9enable_ifIXaaclsr5_PCCPE22_MoveConstructiblePairIT_T0_EEclsr5_PCCPE30_ImplicitlyMoveConvertiblePairISG_SH_EEEbE4typeELb1EEEOSG_OSH_(ptr noundef nonnull align 8 dereferenceable(40) %0, ptr noundef nonnull align 8 dereferenceable(32) %1, ptr noundef nonnull align 8 dereferenceable(8) %2) unnamed_addr #0 comdat align 2 {
  %4 = alloca ptr, align 8
  %5 = alloca ptr, align 8
  %6 = alloca ptr, align 8
  store ptr %0, ptr %4, align 8
  store ptr %1, ptr %5, align 8
  store ptr %2, ptr %6, align 8
  %7 = load ptr, ptr %4, align 8
  %8 = getelementptr inbounds %"struct.std::pair", ptr %7, i32 0, i32 0
  %9 = load ptr, ptr %5, align 8
  call void @_ZNSt7__cxx1112basic_stringIcSt11char_traitsIcESaIcEEC1ERKS4_(ptr noundef nonnull align 8 dereferenceable(32) %8, ptr noundef nonnull align 8 dereferenceable(32) %9)
  %10 = getelementptr inbounds %"struct.std::pair", ptr %7, i32 0, i32 1
  %11 = load ptr, ptr %6, align 8
  %12 = load ptr, ptr %11, align 8
  store ptr %12, ptr %10, align 8
  ret void
}

; Function Attrs: mustprogress nounwind uwtable
define linkonce_odr dso_local noundef nonnull align 8 dereferenceable(40) ptr @_ZNK9__gnu_cxx17__normal_iteratorIPSt4pairIKNSt7__cxx1112basic_stringIcSt11char_traitsIcESaIcEEEPKN4Json5ValueEESt6vectorISD_SaISD_EEEdeEv(ptr noundef nonnull align 8 dereferenceable(8) %0) #1 comdat align 2 {
  %2 = alloca ptr, align 8
  store ptr %0, ptr %2, align 8
  %3 = load ptr, ptr %2, align 8
  %4 = getelementptr inbounds %"class.__gnu_cxx::__normal_iterator.11", ptr %3, i32 0, i32 0
  %5 = load ptr, ptr %4, align 8
  ret ptr %5
}

; Function Attrs: mustprogress nounwind uwtable
define linkonce_odr dso_local ptr @_ZNK9__gnu_cxx17__normal_iteratorIPSt4pairIKNSt7__cxx1112basic_stringIcSt11char_traitsIcESaIcEEEPKN4Json5ValueEESt6vectorISD_SaISD_EEEmiEl(ptr noundef nonnull align 8 dereferenceable(8) %0, i64 noundef %1) #1 comdat align 2 {
  %3 = alloca %"class.__gnu_cxx::__normal_iterator.11", align 8
  %4 = alloca ptr, align 8
  %5 = alloca i64, align 8
  %6 = alloca ptr, align 8
  store ptr %0, ptr %4, align 8
  store i64 %1, ptr %5, align 8
  %7 = load ptr, ptr %4, align 8
  %8 = getelementptr inbounds %"class.__gnu_cxx::__normal_iterator.11", ptr %7, i32 0, i32 0
  %9 = load ptr, ptr %8, align 8
  %10 = load i64, ptr %5, align 8
  %11 = sub i64 0, %10
  %12 = getelementptr inbounds %"struct.std::pair", ptr %9, i64 %11
  store ptr %12, ptr %6, align 8
  call void @_ZN9__gnu_cxx17__normal_iteratorIPSt4pairIKNSt7__cxx1112basic_stringIcSt11char_traitsIcESaIcEEEPKN4Json5ValueEESt6vectorISD_SaISD_EEEC2ERKSE_(ptr noundef nonnull align 8 dereferenceable(8) %3, ptr noundef nonnull align 8 dereferenceable(8) %6) #10
  %13 = getelementptr inbounds %"class.__gnu_cxx::__normal_iterator.11", ptr %3, i32 0, i32 0
  %14 = load ptr, ptr %13, align 8
  ret ptr %14
}

; Function Attrs: mustprogress nounwind uwtable
define linkonce_odr dso_local void @_ZN9__gnu_cxx17__normal_iteratorIPSt4pairIKNSt7__cxx1112basic_stringIcSt11char_traitsIcESaIcEEEPKN4Json5ValueEESt6vectorISD_SaISD_EEEC2ERKSE_(ptr noundef nonnull align 8 dereferenceable(8) %0, ptr noundef nonnull align 8 dereferenceable(8) %1) unnamed_addr #1 comdat align 2 {
  %3 = alloca ptr, align 8
  %4 = alloca ptr, align 8
  store ptr %0, ptr %3, align 8
  store ptr %1, ptr %4, align 8
  %5 = load ptr, ptr %3, align 8
  %6 = getelementptr inbounds %"class.__gnu_cxx::__normal_iterator.11", ptr %5, i32 0, i32 0
  %7 = load ptr, ptr %4, align 8
  %8 = load ptr, ptr %7, align 8
  store ptr %8, ptr %6, align 8
  ret void
}

; Function Attrs: mustprogress uwtable
define linkonce_odr dso_local void @_ZNSt15__new_allocatorISt4pairIKNSt7__cxx1112basic_stringIcSt11char_traitsIcESaIcEEEPKN4Json5ValueEEE9constructISC_JRS7_RSB_EEEvPT_DpOT0_(ptr noundef nonnull align 1 dereferenceable(1) %0, ptr noundef %1, ptr noundef nonnull align 8 dereferenceable(32) %2, ptr noundef nonnull align 8 dereferenceable(8) %3) #0 comdat align 2 {
  %5 = alloca ptr, align 8
  %6 = alloca ptr, align 8
  %7 = alloca ptr, align 8
  %8 = alloca ptr, align 8
  store ptr %0, ptr %5, align 8
  store ptr %1, ptr %6, align 8
  store ptr %2, ptr %7, align 8
  store ptr %3, ptr %8, align 8
  %9 = load ptr, ptr %6, align 8
  %10 = load ptr, ptr %7, align 8
  %11 = load ptr, ptr %8, align 8
  call void @_ZNSt4pairIKNSt7__cxx1112basic_stringIcSt11char_traitsIcESaIcEEEPKN4Json5ValueEEC2IRS6_RSA_TnNSt9enable_ifIXaaclsr5_PCCPE22_MoveConstructiblePairIT_T0_EEclsr5_PCCPE30_ImplicitlyMoveConvertiblePairISG_SH_EEEbE4typeELb1EEEOSG_OSH_(ptr noundef nonnull align 8 dereferenceable(40) %9, ptr noundef nonnull align 8 dereferenceable(32) %10, ptr noundef nonnull align 8 dereferenceable(8) %11)
  ret void
}

; Function Attrs: mustprogress nounwind uwtable
define linkonce_odr dso_local noundef nonnull align 8 dereferenceable(40) ptr @_ZNSt6vectorISt4pairIKNSt7__cxx1112basic_stringIcSt11char_traitsIcESaIcEEEPKN4Json5ValueEESaISC_EE4backEv(ptr noundef nonnull align 8 dereferenceable(24) %0) #1 comdat align 2 {
  %2 = alloca ptr, align 8
  %3 = alloca %"class.__gnu_cxx::__normal_iterator.11", align 8
  %4 = alloca %"class.__gnu_cxx::__normal_iterator.11", align 8
  store ptr %0, ptr %2, align 8
  %5 = load ptr, ptr %2, align 8
  %6 = call ptr @_ZNSt6vectorISt4pairIKNSt7__cxx1112basic_stringIcSt11char_traitsIcESaIcEEEPKN4Json5ValueEESaISC_EE3endEv(ptr noundef nonnull align 8 dereferenceable(24) %5) #10
  %7 = getelementptr inbounds %"class.__gnu_cxx::__normal_iterator.11", ptr %4, i32 0, i32 0
  store ptr %6, ptr %7, align 8
  %8 = call ptr @_ZNK9__gnu_cxx17__normal_iteratorIPSt4pairIKNSt7__cxx1112basic_stringIcSt11char_traitsIcESaIcEEEPKN4Json5ValueEESt6vectorISD_SaISD_EEEmiEl(ptr noundef nonnull align 8 dereferenceable(8) %4, i64 noundef 1) #10
  %9 = getelementptr inbounds %"class.__gnu_cxx::__normal_iterator.11", ptr %3, i32 0, i32 0
  store ptr %8, ptr %9, align 8
  %10 = call noundef nonnull align 8 dereferenceable(40) ptr @_ZNK9__gnu_cxx17__normal_iteratorIPSt4pairIKNSt7__cxx1112basic_stringIcSt11char_traitsIcESaIcEEEPKN4Json5ValueEESt6vectorISD_SaISD_EEEdeEv(ptr noundef nonnull align 8 dereferenceable(8) %3) #10
  ret ptr %10
}

; Function Attrs: mustprogress nounwind uwtable
define linkonce_odr dso_local ptr @_ZNSt6vectorISt4pairIKNSt7__cxx1112basic_stringIcSt11char_traitsIcESaIcEEEPKN4Json5ValueEESaISC_EE3endEv(ptr noundef nonnull align 8 dereferenceable(24) %0) #1 comdat align 2 {
  %2 = alloca %"class.__gnu_cxx::__normal_iterator.11", align 8
  %3 = alloca ptr, align 8
  store ptr %0, ptr %3, align 8
  %4 = load ptr, ptr %3, align 8
  %5 = getelementptr inbounds %"struct.std::_Vector_base", ptr %4, i32 0, i32 0
  %6 = getelementptr inbounds %"struct.std::_Vector_base<std::pair<const std::__cxx11::basic_string<char>, const Json::Value *>, std::allocator<std::pair<const std::__cxx11::basic_string<char>, const Json::Value *>>>::_Vector_impl_data", ptr %5, i32 0, i32 1
  call void @_ZN9__gnu_cxx17__normal_iteratorIPSt4pairIKNSt7__cxx1112basic_stringIcSt11char_traitsIcESaIcEEEPKN4Json5ValueEESt6vectorISD_SaISD_EEEC2ERKSE_(ptr noundef nonnull align 8 dereferenceable(8) %2, ptr noundef nonnull align 8 dereferenceable(8) %6) #10
  %7 = getelementptr inbounds %"class.__gnu_cxx::__normal_iterator.11", ptr %2, i32 0, i32 0
  %8 = load ptr, ptr %7, align 8
  ret ptr %8
}

; Function Attrs: mustprogress uwtable
define linkonce_odr dso_local void @_ZNSt16allocator_traitsISaISt4pairIKNSt7__cxx1112basic_stringIcSt11char_traitsIcESaIcEEEPKN4Json5ValueEEEE9constructISC_JRS7_RSB_EEEvRSD_PT_DpOT0_(ptr noundef nonnull align 1 dereferenceable(1) %0, ptr noundef %1, ptr noundef nonnull align 8 dereferenceable(32) %2, ptr noundef nonnull align 8 dereferenceable(8) %3) #0 comdat align 2 {
  %5 = alloca ptr, align 8
  %6 = alloca ptr, align 8
  %7 = alloca ptr, align 8
  %8 = alloca ptr, align 8
  store ptr %0, ptr %5, align 8
  store ptr %1, ptr %6, align 8
  store ptr %2, ptr %7, align 8
  store ptr %3, ptr %8, align 8
  %9 = load ptr, ptr %5, align 8
  %10 = load ptr, ptr %6, align 8
  %11 = load ptr, ptr %7, align 8
  %12 = load ptr, ptr %8, align 8
  call void @_ZNSt15__new_allocatorISt4pairIKNSt7__cxx1112basic_stringIcSt11char_traitsIcESaIcEEEPKN4Json5ValueEEE9constructISC_JRS7_RSB_EEEvPT_DpOT0_(ptr noundef nonnull align 1 dereferenceable(1) %9, ptr noundef %10, ptr noundef nonnull align 8 dereferenceable(32) %11, ptr noundef nonnull align 8 dereferenceable(8) %12)
  ret void
}

; Function Attrs: mustprogress uwtable
define linkonce_odr dso_local noundef nonnull align 8 dereferenceable(40) ptr @_ZNSt6vectorISt4pairIKNSt7__cxx1112basic_stringIcSt11char_traitsIcESaIcEEEPKN4Json5ValueEESaISC_EE12emplace_backIJRS7_RSB_EEERSC_DpOT_(ptr noundef nonnull align 8 dereferenceable(24) %0, ptr noundef nonnull align 8 dereferenceable(32) %1, ptr noundef nonnull align 8 dereferenceable(8) %2) #0 comdat align 2 {
  %4 = alloca ptr, align 8
  %5 = alloca ptr, align 8
  %6 = alloca ptr, align 8
  %7 = alloca %"class.__gnu_cxx::__normal_iterator.11", align 8
  store ptr %0, ptr %4, align 8
  store ptr %1, ptr %5, align 8
  store ptr %2, ptr %6, align 8
  %8 = load ptr, ptr %4, align 8
  %9 = getelementptr inbounds %"struct.std::_Vector_base", ptr %8, i32 0, i32 0
  %10 = getelementptr inbounds %"struct.std::_Vector_base<std::pair<const std::__cxx11::basic_string<char>, const Json::Value *>, std::allocator<std::pair<const std::__cxx11::basic_string<char>, const Json::Value *>>>::_Vector_impl_data", ptr %9, i32 0, i32 1
  %11 = load ptr, ptr %10, align 8
  %12 = getelementptr inbounds %"struct.std::_Vector_base", ptr %8, i32 0, i32 0
  %13 = getelementptr inbounds %"struct.std::_Vector_base<std::pair<const std::__cxx11::basic_string<char>, const Json::Value *>, std::allocator<std::pair<const std::__cxx11::basic_string<char>, const Json::Value *>>>::_Vector_impl_data", ptr %12, i32 0, i32 2
  %14 = load ptr, ptr %13, align 8
  %15 = icmp ne ptr %11, %14
  br i1 %15, label %16, label %27

16:                                               ; preds = %3
  %17 = getelementptr inbounds %"struct.std::_Vector_base", ptr %8, i32 0, i32 0
  %18 = getelementptr inbounds %"struct.std::_Vector_base", ptr %8, i32 0, i32 0
  %19 = getelementptr inbounds %"struct.std::_Vector_base<std::pair<const std::__cxx11::basic_string<char>, const Json::Value *>, std::allocator<std::pair<const std::__cxx11::basic_string<char>, const Json::Value *>>>::_Vector_impl_data", ptr %18, i32 0, i32 1
  %20 = load ptr, ptr %19, align 8
  %21 = load ptr, ptr %5, align 8
  %22 = load ptr, ptr %6, align 8
  call void @_ZNSt16allocator_traitsISaISt4pairIKNSt7__cxx1112basic_stringIcSt11char_traitsIcESaIcEEEPKN4Json5ValueEEEE9constructISC_JRS7_RSB_EEEvRSD_PT_DpOT0_(ptr noundef nonnull align 1 dereferenceable(1) %17, ptr noundef %20, ptr noundef nonnull align 8 dereferenceable(32) %21, ptr noundef nonnull align 8 dereferenceable(8) %22)
  %23 = getelementptr inbounds %"struct.std::_Vector_base", ptr %8, i32 0, i32 0
  %24 = getelementptr inbounds %"struct.std::_Vector_base<std::pair<const std::__cxx11::basic_string<char>, const Json::Value *>, std::allocator<std::pair<const std::__cxx11::basic_string<char>, const Json::Value *>>>::_Vector_impl_data", ptr %23, i32 0, i32 1
  %25 = load ptr, ptr %24, align 8
  %26 = getelementptr inbounds %"struct.std::pair", ptr %25, i32 1
  store ptr %26, ptr %24, align 8
  br label %34

27:                                               ; preds = %3
  %28 = call ptr @_ZNSt6vectorISt4pairIKNSt7__cxx1112basic_stringIcSt11char_traitsIcESaIcEEEPKN4Json5ValueEESaISC_EE3endEv(ptr noundef nonnull align 8 dereferenceable(24) %8) #10
  %29 = getelementptr inbounds %"class.__gnu_cxx::__normal_iterator.11", ptr %7, i32 0, i32 0
  store ptr %28, ptr %29, align 8
  %30 = load ptr, ptr %5, align 8
  %31 = load ptr, ptr %6, align 8
  %32 = getelementptr inbounds %"class.__gnu_cxx::__normal_iterator.11", ptr %7, i32 0, i32 0
  %33 = load ptr, ptr %32, align 8
  call void @_ZNSt6vectorISt4pairIKNSt7__cxx1112basic_stringIcSt11char_traitsIcESaIcEEEPKN4Json5ValueEESaISC_EE17_M_realloc_insertIJRS7_RSB_EEEvN9__gnu_cxx17__normal_iteratorIPSC_SE_EEDpOT_(ptr noundef nonnull align 8 dereferenceable(24) %8, ptr %33, ptr noundef nonnull align 8 dereferenceable(32) %30, ptr noundef nonnull align 8 dereferenceable(8) %31)
  br label %34

34:                                               ; preds = %27, %16
  %35 = call noundef nonnull align 8 dereferenceable(40) ptr @_ZNSt6vectorISt4pairIKNSt7__cxx1112basic_stringIcSt11char_traitsIcESaIcEEEPKN4Json5ValueEESaISC_EE4backEv(ptr noundef nonnull align 8 dereferenceable(24) %8) #10
  ret ptr %35
}

; Function Attrs: mustprogress uwtable
define dso_local void @_ZN11cmJSONState10push_stackERKNSt7__cxx1112basic_stringIcSt11char_traitsIcESaIcEEEPKN4Json5ValueE(ptr noundef nonnull align 8 dereferenceable(80) %0, ptr noundef nonnull align 8 dereferenceable(32) %1, ptr noundef %2) #0 align 2 {
  %4 = alloca ptr, align 8
  %5 = alloca ptr, align 8
  %6 = alloca ptr, align 8
  store ptr %0, ptr %4, align 8
  store ptr %1, ptr %5, align 8
  store ptr %2, ptr %6, align 8
  %7 = load ptr, ptr %4, align 8
  %8 = getelementptr inbounds %class.cmJSONState, ptr %7, i32 0, i32 0
  %9 = load ptr, ptr %5, align 8
  %10 = call noundef nonnull align 8 dereferenceable(40) ptr @_ZNSt6vectorISt4pairIKNSt7__cxx1112basic_stringIcSt11char_traitsIcESaIcEEEPKN4Json5ValueEESaISC_EE12emplace_backIJRS7_RSB_EEERSC_DpOT_(ptr noundef nonnull align 8 dereferenceable(24) %8, ptr noundef nonnull align 8 dereferenceable(32) %9, ptr noundef nonnull align 8 dereferenceable(8) %6)
  ret void
}